target datalayout = "e-m:e-p270:32:32-p271:32:32-p272:64:64-i64:64-i128:128-f80:128-n8:16:32:64-S128"
target triple = "x86_64-pc-linux-gnu"

%struct.H5P_genclass_t = type { ptr, ptr, i32, i64, i32, i32, i32, i8, i32, ptr, ptr, ptr, ptr, ptr, ptr, ptr }

@H5P_init_g = external global i8, align 1
@H5_libterm_g = external global i8, align 1

; Function Attrs: nounwind uwtable
define i32 @H5P__exist_pclass(ptr noundef %0, ptr noundef %1) #0 {
  %3 = alloca i32, align 4
  %4 = alloca ptr, align 8
  %5 = alloca ptr, align 8
  %6 = alloca i32, align 4
  %7 = alloca ptr, align 8
  %8 = alloca i32, align 4
  store ptr %0, ptr %4, align 8, !tbaa !22
  store ptr %1, ptr %5, align 8, !tbaa !39
  call void @llvm.lifetime.start.p0(i64 4, ptr %6) #8
  store i32 -1, ptr %6, align 4, !tbaa !3
  %9 = load i8, ptr @H5P_init_g, align 1, !tbaa !7, !range !9, !noundef !10
  %10 = trunc i8 %9 to i1
  br i1 %10, label %15, label %11

11:                                               ; preds = %2
  %12 = load i8, ptr @H5_libterm_g, align 1, !tbaa !7, !range !9, !noundef !10
  %13 = trunc i8 %12 to i1
  %14 = xor i1 %13, true
  br label %15

15:                                               ; preds = %11, %2
  %16 = phi i1 [ true, %2 ], [ %14, %11 ]
  %17 = xor i1 %16, true
  %18 = xor i1 %17, true
  %19 = zext i1 %18 to i32
  %20 = sext i32 %19 to i64
  %21 = call i64 @llvm.expect.i64(i64 %20, i64 1)
  %22 = icmp ne i64 %21, 0
  br i1 %22, label %23, label %59

23:                                               ; preds = %15
  %24 = load ptr, ptr %4, align 8, !tbaa !22
  %25 = getelementptr inbounds nuw %struct.H5P_genclass_t, ptr %24, i32 0, i32 9
  %26 = load ptr, ptr %25, align 8, !tbaa !52
  %27 = load ptr, ptr %5, align 8, !tbaa !39
  %28 = call ptr @H5SL_search(ptr noundef %26, ptr noundef %27)
  %29 = icmp ne ptr %28, null
  br i1 %29, label %30, label %31

30:                                               ; preds = %23
  store i32 1, ptr %6, align 4, !tbaa !3
  br label %57

31:                                               ; preds = %23
  call void @llvm.lifetime.start.p0(i64 8, ptr %7) #8
  %32 = load ptr, ptr %4, align 8, !tbaa !22
  %33 = getelementptr inbounds nuw %struct.H5P_genclass_t, ptr %32, i32 0, i32 0
  %34 = load ptr, ptr %33, align 8, !tbaa !41
  store ptr %34, ptr %7, align 8, !tbaa !22
  br label %35

35:                                               ; preds = %49, %31
  %36 = load ptr, ptr %7, align 8, !tbaa !22
  %37 = icmp ne ptr %36, null
  br i1 %37, label %38, label %53

38:                                               ; preds = %35
  %39 = load ptr, ptr %7, align 8, !tbaa !22
  %40 = getelementptr inbounds nuw %struct.H5P_genclass_t, ptr %39, i32 0, i32 9
  %41 = load ptr, ptr %40, align 8, !tbaa !52
  %42 = load ptr, ptr %5, align 8, !tbaa !39
  %43 = call ptr @H5SL_search(ptr noundef %41, ptr noundef %42)
  %44 = icmp ne ptr %43, null
  br i1 %44, label %45, label %49

45:                                               ; preds = %38
  br label %46

46:                                               ; preds = %45
  store i32 1, ptr %6, align 4, !tbaa !3
  store i32 6, ptr %8, align 4
  br label %54

47:                                               ; No predecessors!
  br label %48

48:                                               ; preds = %47
  br label %49

49:                                               ; preds = %48, %38
  %50 = load ptr, ptr %7, align 8, !tbaa !22
  %51 = getelementptr inbounds nuw %struct.H5P_genclass_t, ptr %50, i32 0, i32 0
  %52 = load ptr, ptr %51, align 8, !tbaa !41
  store ptr %52, ptr %7, align 8, !tbaa !22
  br label %35, !llvm.loop !109

53:                                               ; preds = %35
  store i32 0, ptr %6, align 4, !tbaa !3
  store i32 0, ptr %8, align 4
  br label %54

54:                                               ; preds = %46, %53
  call void @llvm.lifetime.end.p0(i64 8, ptr %7) #8
  %55 = load i32, ptr %8, align 4
  switch i32 %55, label %61 [
    i32 0, label %56
    i32 6, label %58
  ]

56:                                               ; preds = %54
  br label %57

57:                                               ; preds = %56, %30
  br label %58

58:                                               ; preds = %57, %54
  br label %59

59:                                               ; preds = %58, %15
  %60 = load i32, ptr %6, align 4, !tbaa !3
  store i32 %60, ptr %3, align 4
  store i32 1, ptr %8, align 4
  br label %61

61:                                               ; preds = %59, %54
  call void @llvm.lifetime.end.p0(i64 4, ptr %6) #8
  %62 = load i32, ptr %3, align 4
  ret i32 %62
}