; Function Attrs: nounwind uwtable
define range(i32 -1, 2) i32 @H5P__exist_pclass(ptr noundef readonly captures(none) %0, ptr noundef %1) local_unnamed_addr #0 {
  %3 = load i8, ptr @H5P_init_g, align 1, !tbaa !3, !range !7, !noundef !8
  %4 = trunc nuw i8 %3 to i1
  %5 = load i8, ptr @H5_libterm_g, align 1, !range !7
  %6 = trunc nuw i8 %5 to i1
  %7 = xor i1 %6, true
  %8 = select i1 %4, i1 true, i1 %7
  br i1 %8, label %9, label %.loopexit, !prof !9

9:                                                ; preds = %2
  %10 = getelementptr inbounds nuw i8, ptr %0, i64 56
  %11 = load ptr, ptr %10, align 8, !tbaa !47
  %12 = tail call ptr @H5SL_search(ptr noundef %11, ptr noundef %1) #14
  %.not = icmp eq ptr %12, null
  br i1 %.not, label %.preheader, label %.loopexit

.preheader:                                       ; preds = %9, %13
  %.09.in = phi ptr [ %.09, %13 ], [ %0, %9 ]
  %.09 = load ptr, ptr %.09.in, align 8, !tbaa !38
  %.not12 = icmp eq ptr %.09, null
  br i1 %.not12, label %.loopexit, label %13

13:                                               ; preds = %.preheader
  %14 = getelementptr inbounds nuw i8, ptr %.09, i64 56
  %15 = load ptr, ptr %14, align 8, !tbaa !47
  %16 = tail call ptr @H5SL_search(ptr noundef %15, ptr noundef %1) #14
  %.not13 = icmp eq ptr %16, null
  br i1 %.not13, label %.preheader, label %.loopexit, !llvm.loop !99

.loopexit:                                        ; preds = %13, %.preheader, %2, %9
  %.011 = phi i32 [ -1, %2 ], [ 1, %9 ], [ 0, %.preheader ], [ 1, %13 ]
  ret i32 %.011
}